target datalayout = "e-m:e-p270:32:32-p271:32:32-p272:64:64-i64:64-i128:128-f80:128-n8:16:32:64-S128"
target triple = "x86_64-pc-linux-gnu"

%struct.gen_ctx_st = type { ptr, ptr, i32, i32, ptr, ptr, i32, ptr, ptr, ptr }

@.str.23 = private unnamed_addr constant [35 x i8] c"../openssl/test/radix/quic_tests.c\00", align 1
@.str.131 = private unnamed_addr constant [16 x i8] c"hf_spawn_thread\00", align 1
@script_info_simple_thread_child = internal global { ptr, ptr, ptr, i32, [4 x i8], ptr } { ptr @.str.132, ptr @.str.133, ptr @.str.23, i32 43, [4 x i8] zeroinitializer, ptr @script_gen_simple_thread_child }, align 8

; Function Attrs: nounwind uwtable
define internal void @opgen_set_line(ptr noundef %0, ptr noundef %1, i32 noundef %2) #0 {
  %4 = alloca ptr, align 8
  %5 = alloca ptr, align 8
  %6 = alloca i32, align 4
  store ptr %0, ptr %4, align 8, !tbaa !34
  store ptr %1, ptr %5, align 8, !tbaa !4
  store i32 %2, ptr %6, align 4, !tbaa !9
  %7 = load ptr, ptr %5, align 8, !tbaa !4
  %8 = load ptr, ptr %4, align 8, !tbaa !34
  %9 = getelementptr inbounds nuw %struct.gen_ctx_st, ptr %8, i32 0, i32 1
  store ptr %7, ptr %9, align 8, !tbaa !38
  %10 = load i32, ptr %6, align 4, !tbaa !9
  %11 = load ptr, ptr %4, align 8, !tbaa !34
  %12 = getelementptr inbounds nuw %struct.gen_ctx_st, ptr %11, i32 0, i32 3
  store i32 %10, ptr %12, align 4, !tbaa !40
  ret void
}

; Function Attrs: nounwind uwtable
define internal void @script_gen_simple_thread(ptr noundef %0) #0 {
  %2 = alloca ptr, align 8
  %3 = alloca i64, align 8
  store ptr %0, ptr %2, align 8, !tbaa !34
  call void @llvm.lifetime.start.p0(i64 8, ptr %3) #9
  store i64 0, ptr %3, align 8, !tbaa !19
  br label %4

4:                                                ; preds = %12, %1
  %5 = load i64, ptr %3, align 8, !tbaa !19
  %6 = icmp ult i64 %5, 2
  br i1 %6, label %7, label %15

7:                                                ; preds = %4
  %8 = load ptr, ptr %2, align 8, !tbaa !34
  call void @opgen_set_line(ptr noundef %8, ptr noundef @.str.23, i32 noundef 57)
  %9 = load ptr, ptr %2, align 8, !tbaa !34
  call void @opgen_PUSH_P(ptr noundef %9, ptr noundef @script_info_simple_thread_child)
  %10 = load ptr, ptr %2, align 8, !tbaa !34
  call void @opgen_set_line(ptr noundef %10, ptr noundef @.str.23, i32 noundef 57)
  %11 = load ptr, ptr %2, align 8, !tbaa !34
  call void @opgen_FUNC(ptr noundef %11, ptr noundef @hf_spawn_thread, ptr noundef @.str.131)
  br label %12

12:                                               ; preds = %7
  %13 = load i64, ptr %3, align 8, !tbaa !19
  %14 = add i64 %13, 1
  store i64 %14, ptr %3, align 8, !tbaa !19
  br label %4, !llvm.loop !92

15:                                               ; preds = %4
  call void @llvm.lifetime.end.p0(i64 8, ptr %3) #9
  ret void
}