; Function Attrs: nounwind uwtable
define internal void @script_gen_simple_thread(ptr noundef captures(none) initializes((8, 16), (20, 24)) %0) #1 {
.critedge:
  %1 = getelementptr inbounds nuw i8, ptr %0, i64 8
  %2 = getelementptr inbounds nuw i8, ptr %0, i64 20
  store ptr @.str.23, ptr %1, align 8, !tbaa !104
  store i32 57, ptr %2, align 4, !tbaa !105
  tail call fastcc void @opgen_PUSH_P(ptr noundef %0, ptr noundef nonnull @script_info_simple_thread_child)
  store ptr @.str.23, ptr %1, align 8, !tbaa !104
  store i32 57, ptr %2, align 4, !tbaa !105
  tail call fastcc void @opgen_FUNC(ptr noundef %0, ptr noundef nonnull @hf_spawn_thread, ptr noundef nonnull @.str.131)
  store ptr @.str.23, ptr %1, align 8, !tbaa !104
  store i32 57, ptr %2, align 4, !tbaa !105
  tail call fastcc void @opgen_PUSH_P(ptr noundef %0, ptr noundef nonnull @script_info_simple_thread_child)
  store ptr @.str.23, ptr %1, align 8, !tbaa !104
  store i32 57, ptr %2, align 4, !tbaa !105
  tail call fastcc void @opgen_FUNC(ptr noundef %0, ptr noundef nonnull @hf_spawn_thread, ptr noundef nonnull @.str.131)
  ret void
}